target datalayout = "e-m:e-p270:32:32-p271:32:32-p272:64:64-i64:64-i128:128-f80:128-n8:16:32:64-S128"
target triple = "x86_64-pc-linux-gnu"

%struct._HashEntry_mint = type { ptr, i32, i32 }
%struct.DdNode = type { i32, i32, ptr, %union.anon, i64 }
%union.anon = type { %struct.DdChildren }
%struct.DdChildren = type { ptr, ptr }

@s_Terminal = internal global ptr null, align 8
@HHTable2 = global [15113 x %struct._HashEntry_mint] zeroinitializer, align 16

; Function Attrs: nounwind uwtable
define internal i32 @Extra_CountMintermsSimple(ptr noundef %0, i32 noundef %1) #0 {
  %3 = alloca i32, align 4
  %4 = alloca ptr, align 8
  %5 = alloca i32, align 4
  %6 = alloca i32, align 4
  %7 = alloca i32, align 4
  %8 = alloca i32, align 4
  store ptr %0, ptr %4, align 8, !tbaa !28
  store i32 %1, ptr %5, align 4, !tbaa !10
  call void @llvm.lifetime.start.p0(i64 4, ptr %6) #6
  %9 = load ptr, ptr %4, align 8, !tbaa !28
  %10 = ptrtoint ptr %9 to i64
  %11 = and i64 %10, 1
  %12 = trunc i64 %11 to i32
  %13 = icmp ne i32 %12, 0
  br i1 %13, label %14, label %23

14:                                               ; preds = %2
  %15 = load i32, ptr %5, align 4, !tbaa !10
  %16 = load ptr, ptr %4, align 8, !tbaa !28
  %17 = ptrtoint ptr %16 to i64
  %18 = xor i64 %17, 1
  %19 = inttoptr i64 %18 to ptr
  %20 = load i32, ptr %5, align 4, !tbaa !10
  %21 = call i32 @Extra_CountMintermsSimple(ptr noundef %19, i32 noundef %20)
  %22 = sub i32 %15, %21
  store i32 %22, ptr %3, align 4
  store i32 1, ptr %7, align 4
  br label %99

23:                                               ; preds = %2
  %24 = load ptr, ptr %4, align 8, !tbaa !28
  %25 = getelementptr inbounds nuw %struct.DdNode, ptr %24, i32 0, i32 0
  %26 = load i32, ptr %25, align 8, !tbaa !33
  %27 = icmp eq i32 %26, 2147483647
  br i1 %27, label %28, label %37

28:                                               ; preds = %23
  %29 = load ptr, ptr %4, align 8, !tbaa !28
  %30 = load ptr, ptr @s_Terminal, align 8, !tbaa !28
  %31 = icmp eq ptr %29, %30
  br i1 %31, label %32, label %33

32:                                               ; preds = %28
  br label %35

33:                                               ; preds = %28
  %34 = load i32, ptr %5, align 4, !tbaa !10
  br label %35

35:                                               ; preds = %33, %32
  %36 = phi i32 [ 0, %32 ], [ %34, %33 ]
  store i32 %36, ptr %3, align 4
  store i32 1, ptr %7, align 4
  br label %99

37:                                               ; preds = %23
  %38 = load ptr, ptr %4, align 8, !tbaa !28
  %39 = ptrtoint ptr %38 to i64
  %40 = load i32, ptr %5, align 4, !tbaa !10
  %41 = zext i32 %40 to i64
  %42 = mul i64 %41, 12582917
  %43 = add i64 %39, %42
  %44 = urem i64 %43, 15113
  %45 = trunc i64 %44 to i32
  store i32 %45, ptr %6, align 4, !tbaa !10
  %46 = load i32, ptr %6, align 4, !tbaa !10
  %47 = zext i32 %46 to i64
  %48 = getelementptr inbounds nuw [15113 x %struct._HashEntry_mint], ptr @HHTable2, i64 0, i64 %47
  %49 = getelementptr inbounds nuw %struct._HashEntry_mint, ptr %48, i32 0, i32 0
  %50 = load ptr, ptr %49, align 16, !tbaa !71
  %51 = load ptr, ptr %4, align 8, !tbaa !28
  %52 = icmp eq ptr %50, %51
  br i1 %52, label %53, label %67

53:                                               ; preds = %37
  %54 = load i32, ptr %6, align 4, !tbaa !10
  %55 = zext i32 %54 to i64
  %56 = getelementptr inbounds nuw [15113 x %struct._HashEntry_mint], ptr @HHTable2, i64 0, i64 %55
  %57 = getelementptr inbounds nuw %struct._HashEntry_mint, ptr %56, i32 0, i32 1
  %58 = load i32, ptr %57, align 8, !tbaa !73
  %59 = load i32, ptr %5, align 4, !tbaa !10
  %60 = icmp eq i32 %58, %59
  br i1 %60, label %61, label %67

61:                                               ; preds = %53
  %62 = load i32, ptr %6, align 4, !tbaa !10
  %63 = zext i32 %62 to i64
  %64 = getelementptr inbounds nuw [15113 x %struct._HashEntry_mint], ptr @HHTable2, i64 0, i64 %63
  %65 = getelementptr inbounds nuw %struct._HashEntry_mint, ptr %64, i32 0, i32 2
  %66 = load i32, ptr %65, align 4, !tbaa !74
  store i32 %66, ptr %3, align 4
  store i32 1, ptr %7, align 4
  br label %99

67:                                               ; preds = %53, %37
  call void @llvm.lifetime.start.p0(i64 4, ptr %8) #6
  %68 = load ptr, ptr %4, align 8, !tbaa !28
  %69 = getelementptr inbounds nuw %struct.DdNode, ptr %68, i32 0, i32 3
  %70 = getelementptr inbounds nuw %struct.DdChildren, ptr %69, i32 0, i32 1
  %71 = load ptr, ptr %70, align 8, !tbaa !39
  %72 = load i32, ptr %5, align 4, !tbaa !10
  %73 = call i32 @Extra_CountMintermsSimple(ptr noundef %71, i32 noundef %72)
  %74 = lshr i32 %73, 1
  %75 = load ptr, ptr %4, align 8, !tbaa !28
  %76 = getelementptr inbounds nuw %struct.DdNode, ptr %75, i32 0, i32 3
  %77 = getelementptr inbounds nuw %struct.DdChildren, ptr %76, i32 0, i32 0
  %78 = load ptr, ptr %77, align 8, !tbaa !39
  %79 = load i32, ptr %5, align 4, !tbaa !10
  %80 = call i32 @Extra_CountMintermsSimple(ptr noundef %78, i32 noundef %79)
  %81 = lshr i32 %80, 1
  %82 = add i32 %74, %81
  store i32 %82, ptr %8, align 4, !tbaa !10
  %83 = load ptr, ptr %4, align 8, !tbaa !28
  %84 = load i32, ptr %6, align 4, !tbaa !10
  %85 = zext i32 %84 to i64
  %86 = getelementptr inbounds nuw [15113 x %struct._HashEntry_mint], ptr @HHTable2, i64 0, i64 %85
  %87 = getelementptr inbounds nuw %struct._HashEntry_mint, ptr %86, i32 0, i32 0
  store ptr %83, ptr %87, align 16, !tbaa !71
  %88 = load i32, ptr %5, align 4, !tbaa !10
  %89 = load i32, ptr %6, align 4, !tbaa !10
  %90 = zext i32 %89 to i64
  %91 = getelementptr inbounds nuw [15113 x %struct._HashEntry_mint], ptr @HHTable2, i64 0, i64 %90
  %92 = getelementptr inbounds nuw %struct._HashEntry_mint, ptr %91, i32 0, i32 1
  store i32 %88, ptr %92, align 8, !tbaa !73
  %93 = load i32, ptr %8, align 4, !tbaa !10
  %94 = load i32, ptr %6, align 4, !tbaa !10
  %95 = zext i32 %94 to i64
  %96 = getelementptr inbounds nuw [15113 x %struct._HashEntry_mint], ptr @HHTable2, i64 0, i64 %95
  %97 = getelementptr inbounds nuw %struct._HashEntry_mint, ptr %96, i32 0, i32 2
  store i32 %93, ptr %97, align 4, !tbaa !74
  %98 = load i32, ptr %8, align 4, !tbaa !10
  store i32 %98, ptr %3, align 4
  store i32 1, ptr %7, align 4
  call void @llvm.lifetime.end.p0(i64 4, ptr %8) #6
  br label %99

99:                                               ; preds = %67, %61, %35, %14
  call void @llvm.lifetime.end.p0(i64 4, ptr %6) #6
  %100 = load i32, ptr %3, align 4
  ret i32 %100
}