; Function Attrs: nofree nosync nounwind memory(readwrite, argmem: read, inaccessiblemem: none) uwtable
define internal fastcc i32 @Extra_CountMintermsSimple(ptr noundef %0, i32 noundef %1) unnamed_addr #6 {
  %3 = ptrtoint ptr %0 to i64
  %4 = and i64 %3, 1
  %.not = icmp eq i64 %4, 0
  br i1 %.not, label %10, label %5

common.ret25:                                     ; preds = %29, %13, %32, %5
  %common.ret25.op = phi i32 [ %9, %5 ], [ %41, %32 ], [ %16, %13 ], [ %31, %29 ]
  ret i32 %common.ret25.op

5:                                                ; preds = %2
  %6 = and i64 %3, -2
  %7 = inttoptr i64 %6 to ptr
  %8 = tail call fastcc i32 @Extra_CountMintermsSimple(ptr noundef %7, i32 noundef %1)
  %9 = sub i32 %1, %8
  br label %common.ret25

10:                                               ; preds = %2
  %11 = load i32, ptr %0, align 8, !tbaa !28
  %12 = icmp eq i32 %11, 2147483647
  br i1 %12, label %13, label %17

13:                                               ; preds = %10
  %14 = load ptr, ptr @s_Terminal, align 8, !tbaa !24
  %15 = icmp eq ptr %0, %14
  %16 = select i1 %15, i32 0, i32 %1
  br label %common.ret25

17:                                               ; preds = %10
  %18 = zext i32 %1 to i64
  %19 = mul nuw nsw i64 %18, 12582917
  %20 = add i64 %19, %3
  %21 = urem i64 %20, 15113
  %22 = getelementptr inbounds nuw [15113 x %struct._HashEntry_mint], ptr @HHTable2, i64 0, i64 %21
  %23 = load ptr, ptr %22, align 16, !tbaa !62
  %24 = icmp eq ptr %23, %0
  br i1 %24, label %25, label %32

25:                                               ; preds = %17
  %26 = getelementptr inbounds nuw i8, ptr %22, i64 8
  %27 = load i32, ptr %26, align 8, !tbaa !64
  %28 = icmp eq i32 %27, %1
  br i1 %28, label %29, label %32

29:                                               ; preds = %25
  %30 = getelementptr inbounds nuw i8, ptr %22, i64 12
  %31 = load i32, ptr %30, align 4, !tbaa !65
  br label %common.ret25

32:                                               ; preds = %25, %17
  %33 = getelementptr inbounds nuw i8, ptr %0, i64 16
  %34 = getelementptr inbounds nuw i8, ptr %0, i64 24
  %35 = load ptr, ptr %34, align 8, !tbaa !34
  %36 = tail call fastcc i32 @Extra_CountMintermsSimple(ptr noundef %35, i32 noundef %1)
  %37 = lshr i32 %36, 1
  %38 = load ptr, ptr %33, align 8, !tbaa !34
  %39 = tail call fastcc i32 @Extra_CountMintermsSimple(ptr noundef %38, i32 noundef %1)
  %40 = lshr i32 %39, 1
  %41 = add nuw i32 %40, %37
  store ptr %0, ptr %22, align 16, !tbaa !62
  %42 = getelementptr inbounds nuw i8, ptr %22, i64 8
  store i32 %1, ptr %42, align 8, !tbaa !64
  %43 = getelementptr inbounds nuw i8, ptr %22, i64 12
  store i32 %41, ptr %43, align 4, !tbaa !65
  br label %common.ret25
}